; Function Attrs: mustprogress uwtable
define dso_local noundef zeroext i1 @_ZN13cmDependsJava17WriteDependenciesERKSt3setINSt7__cxx1112basic_stringIcSt11char_traitsIcESaIcEEESt4lessIS6_ESaIS6_EERKS6_RSoSF_(ptr nocapture nonnull readnone align 8 %0, ptr nocapture noundef nonnull readonly align 8 dereferenceable(48) %1, ptr nocapture nonnull readnone align 8 %2, ptr nocapture nonnull readnone align 8 %3, ptr nocapture nonnull readnone align 8 %4) unnamed_addr #3 align 2 personality ptr @__gxx_personality_v0 {
  %6 = alloca %"class.std::__cxx11::basic_string", align 8
  %7 = alloca %"class.std::allocator", align 1
  %8 = getelementptr inbounds i8, ptr %1, i64 40
  %9 = load i64, ptr %8, align 8
  %10 = icmp eq i64 %9, 0
  br i1 %10, label %.critedge, label %11

11:                                               ; preds = %5
  %12 = getelementptr inbounds i8, ptr %1, i64 24
  %13 = load ptr, ptr %12, align 8
  %14 = getelementptr inbounds i8, ptr %13, i64 32
  %15 = tail call noundef zeroext i1 @_ZNKSt7__cxx1112basic_stringIcSt11char_traitsIcESaIcEE5emptyEv(ptr noundef nonnull align 8 dereferenceable(32) %14) #9
  br i1 %15, label %.critedge, label %24

.critedge:                                        ; preds = %5, %11
  call void @_ZNSaIcEC1Ev(ptr noundef nonnull align 1 dereferenceable(1) %7) #9
  %16 = invoke noundef ptr @_ZNSt7__cxx1112basic_stringIcSt11char_traitsIcESaIcEE13_M_local_dataEv(ptr noundef nonnull align 8 dereferenceable(32) %6)
          to label %.noexc unwind label %20

.noexc:                                           ; preds = %.critedge
  invoke void @_ZNSt7__cxx1112basic_stringIcSt11char_traitsIcESaIcEE12_Alloc_hiderC1EPcRKS3_(ptr noundef nonnull align 8 dereferenceable(8) %6, ptr noundef %16, ptr noundef nonnull align 1 dereferenceable(1) %7)
          to label %.noexc7 unwind label %20

.noexc7:                                          ; preds = %.noexc
  invoke void @_ZNSt7__cxx1112basic_stringIcSt11char_traitsIcESaIcEE12_M_constructIPKcEEvT_S8_St20forward_iterator_tag(ptr noundef nonnull align 8 dereferenceable(32) %6, ptr noundef nonnull @.str.1, ptr noundef nonnull getelementptr inbounds ([49 x i8], ptr @.str.1, i64 0, i64 48))
          to label %_ZNSt7__cxx1112basic_stringIcSt11char_traitsIcESaIcEEC2IS3_EEPKcRKS3_.exit unwind label %17

17:                                               ; preds = %.noexc7
  %18 = landingpad { ptr, i32 }
          cleanup
  call void @_ZNSaIcED2Ev(ptr noundef nonnull align 1 dereferenceable(1) %6) #9
  br label %.body

_ZNSt7__cxx1112basic_stringIcSt11char_traitsIcESaIcEEC2IS3_EEPKcRKS3_.exit: ; preds = %.noexc7
  invoke void @_ZN13cmSystemTools5ErrorERKNSt7__cxx1112basic_stringIcSt11char_traitsIcESaIcEEE(ptr noundef nonnull align 8 dereferenceable(32) %6)
          to label %19 unwind label %22

19:                                               ; preds = %_ZNSt7__cxx1112basic_stringIcSt11char_traitsIcESaIcEEC2IS3_EEPKcRKS3_.exit
  call void @_ZNSt7__cxx1112basic_stringIcSt11char_traitsIcESaIcEED1Ev(ptr noundef nonnull align 8 dereferenceable(32) %6) #9
  call void @_ZNSaIcED1Ev(ptr noundef nonnull align 1 dereferenceable(1) %7) #9
  br label %24

20:                                               ; preds = %.noexc, %.critedge
  %21 = landingpad { ptr, i32 }
          cleanup
  br label %.body

22:                                               ; preds = %_ZNSt7__cxx1112basic_stringIcSt11char_traitsIcESaIcEEC2IS3_EEPKcRKS3_.exit
  %23 = landingpad { ptr, i32 }
          cleanup
  call void @_ZNSt7__cxx1112basic_stringIcSt11char_traitsIcESaIcEED1Ev(ptr noundef nonnull align 8 dereferenceable(32) %6) #9
  br label %.body

.body:                                            ; preds = %20, %17, %22
  %.pn = phi { ptr, i32 } [ %23, %22 ], [ %21, %20 ], [ %18, %17 ]
  call void @_ZNSaIcED1Ev(ptr noundef nonnull align 1 dereferenceable(1) %7) #9
  resume { ptr, i32 } %.pn

24:                                               ; preds = %11, %19
  %.05 = phi i1 [ false, %19 ], [ true, %11 ]
  ret i1 %.05
}